target datalayout = "e-m:e-p270:32:32-p271:32:32-p272:64:64-i64:64-i128:128-f80:128-n8:16:32:64-S128"
target triple = "x86_64-pc-linux-gnu"

%"class.boost::core::basic_string_view" = type { ptr, i64 }
%"class.boost::urls::url_view_base" = type { [8 x i8], %"struct.boost::urls::detail::url_impl", ptr }
%"struct.boost::urls::detail::url_impl" = type <{ ptr, [8 x i64], [7 x i64], i64, i64, [16 x i8], i16, [2 x i8], i32, i16, i8, [5 x i8] }>

; Function Attrs: mustprogress nounwind uwtable
define linkonce_odr hidden noundef zeroext i1 @_ZNK5boost4core17basic_string_viewIcE5emptyEv(ptr noundef nonnull align 8 dereferenceable(16) %0) #2 comdat align 2 {
  %2 = alloca ptr, align 8
  store ptr %0, ptr %2, align 8, !tbaa !7
  %3 = load ptr, ptr %2, align 8
  %4 = getelementptr inbounds nuw %"class.boost::core::basic_string_view", ptr %3, i32 0, i32 1
  %5 = load i64, ptr %4, align 8, !tbaa !60
  %6 = icmp eq i64 %5, 0
  ret i1 %6
}

; Function Attrs: mustprogress nounwind uwtable
define linkonce_odr hidden noundef zeroext i1 @_ZNK5boost4urls13url_view_base16is_path_absoluteEv(ptr noundef nonnull align 8 dereferenceable(192) %0) #2 comdat align 2 {
  %2 = alloca ptr, align 8
  store ptr %0, ptr %2, align 8, !tbaa !7
  %3 = load ptr, ptr %2, align 8
  %4 = getelementptr inbounds nuw %"class.boost::urls::url_view_base", ptr %3, i32 0, i32 2
  %5 = load ptr, ptr %4, align 8, !tbaa !33
  %6 = call noundef i64 @_ZNK5boost4urls6detail8url_impl3lenEi(ptr noundef nonnull align 8 dereferenceable(171) %5, i32 noundef 4) #9
  %7 = icmp ugt i64 %6, 0
  br i1 %7, label %8, label %20

8:                                                ; preds = %1
  %9 = getelementptr inbounds nuw %"class.boost::urls::url_view_base", ptr %3, i32 0, i32 2
  %10 = load ptr, ptr %9, align 8, !tbaa !33
  %11 = getelementptr inbounds nuw %"struct.boost::urls::detail::url_impl", ptr %10, i32 0, i32 0
  %12 = load ptr, ptr %11, align 8, !tbaa !36
  %13 = getelementptr inbounds nuw %"class.boost::urls::url_view_base", ptr %3, i32 0, i32 2
  %14 = load ptr, ptr %13, align 8, !tbaa !33
  %15 = call noundef i64 @_ZNK5boost4urls6detail8url_impl6offsetEi(ptr noundef nonnull align 8 dereferenceable(171) %14, i32 noundef 4) #9
  %16 = getelementptr inbounds nuw i8, ptr %12, i64 %15
  %17 = load i8, ptr %16, align 1, !tbaa !32
  %18 = sext i8 %17 to i32
  %19 = icmp eq i32 %18, 47
  br label %20

20:                                               ; preds = %8, %1
  %21 = phi i1 [ false, %1 ], [ %19, %8 ]
  ret i1 %21
}

; Function Attrs: mustprogress nounwind uwtable
define void @_ZNK5boost4urls8url_base16check_invariantsEv(ptr noundef nonnull align 8 dereferenceable(216) %0) #2 align 2 {
  %2 = alloca ptr, align 8
  store ptr %0, ptr %2, align 8, !tbaa !7
  ret void
}

; Function Attrs: mustprogress uwtable
define noundef ptr @_ZN5boost4urls8url_base17set_userinfo_implEmRNS1_4op_tE(ptr noundef nonnull align 8 dereferenceable(216) %0, i64 noundef %1, ptr noundef nonnull align 8 dereferenceable(32) %2) #5 align 2 {
  %4 = alloca ptr, align 8
  %5 = alloca i64, align 8
  %6 = alloca ptr, align 8
  %7 = alloca i8, align 1
  %8 = alloca %"class.boost::core::basic_string_view", align 8
  %9 = alloca ptr, align 8
  store ptr %0, ptr %4, align 8, !tbaa !7
  store i64 %1, ptr %5, align 8, !tbaa !21
  store ptr %2, ptr %6, align 8, !tbaa !7
  %10 = load ptr, ptr %4, align 8
  call void @_ZNK5boost4urls8url_base16check_invariantsEv(ptr noundef nonnull align 8 dereferenceable(216) %10) #9
  call void @llvm.lifetime.start.p0(i64 1, ptr %7) #9
  %11 = getelementptr inbounds i8, ptr %10, i64 8
  %12 = call noundef zeroext i1 @_ZNK5boost4urls13url_view_base16is_path_absoluteEv(ptr noundef nonnull align 8 dereferenceable(192) %11) #9
  call void @llvm.lifetime.start.p0(i64 16, ptr %8) #9
  br i1 %12, label %23, label %13

13:                                               ; preds = %3
  %14 = getelementptr inbounds i8, ptr %10, i64 8
  %15 = getelementptr inbounds nuw %"class.boost::urls::url_view_base", ptr %14, i32 0, i32 1
  %16 = call { ptr, i64 } @_ZNK5boost4urls6detail8url_impl3getEi(ptr noundef nonnull align 8 dereferenceable(171) %15, i32 noundef 4) #9
  %17 = getelementptr inbounds nuw { ptr, i64 }, ptr %8, i32 0, i32 0
  %18 = extractvalue { ptr, i64 } %16, 0
  store ptr %18, ptr %17, align 8
  %19 = getelementptr inbounds nuw { ptr, i64 }, ptr %8, i32 0, i32 1
  %20 = extractvalue { ptr, i64 } %16, 1
  store i64 %20, ptr %19, align 8
  %21 = call noundef zeroext i1 @_ZNK5boost4core17basic_string_viewIcE5emptyEv(ptr noundef nonnull align 8 dereferenceable(16) %8) #9
  %22 = xor i1 %21, true
  br label %23

23:                                               ; preds = %13, %3
  %24 = phi i1 [ false, %3 ], [ %22, %13 ]
  call void @llvm.lifetime.end.p0(i64 16, ptr %8) #9
  %25 = zext i1 %24 to i8
  store i8 %25, ptr %7, align 1, !tbaa !42
  call void @llvm.lifetime.start.p0(i64 8, ptr %9) #9
  %26 = load i64, ptr %5, align 8, !tbaa !21
  %27 = add i64 %26, 3
  %28 = load i8, ptr %7, align 1, !tbaa !42, !range !44, !noundef !45
  %29 = trunc i8 %28 to i1
  %30 = zext i1 %29 to i64
  %31 = add i64 %27, %30
  %32 = load ptr, ptr %6, align 8, !tbaa !7
  %33 = call noundef ptr @_ZN5boost4urls8url_base11resize_implEiimRNS1_4op_tE(ptr noundef nonnull align 8 dereferenceable(216) %10, i32 noundef 0, i32 noundef 2, i64 noundef %31, ptr noundef nonnull align 8 dereferenceable(32) %32)
  store ptr %33, ptr %9, align 8, !tbaa !7
  %34 = getelementptr inbounds i8, ptr %10, i64 8
  %35 = getelementptr inbounds nuw %"class.boost::urls::url_view_base", ptr %34, i32 0, i32 1
  %36 = load i64, ptr %5, align 8, !tbaa !21
  %37 = add i64 %36, 2
  call void @_ZN5boost4urls6detail8url_impl5splitEim(ptr noundef nonnull align 8 dereferenceable(171) %35, i32 noundef 0, i64 noundef %37) #9
  %38 = load ptr, ptr %9, align 8, !tbaa !7
  %39 = getelementptr inbounds i8, ptr %38, i64 0
  store i8 47, ptr %39, align 1, !tbaa !32
  %40 = load ptr, ptr %9, align 8, !tbaa !7
  %41 = getelementptr inbounds i8, ptr %40, i64 1
  store i8 47, ptr %41, align 1, !tbaa !32
  %42 = load ptr, ptr %9, align 8, !tbaa !7
  %43 = load i64, ptr %5, align 8, !tbaa !21
  %44 = add i64 %43, 2
  %45 = getelementptr inbounds nuw i8, ptr %42, i64 %44
  store i8 64, ptr %45, align 1, !tbaa !32
  %46 = load i8, ptr %7, align 1, !tbaa !42, !range !44, !noundef !45
  %47 = trunc i8 %46 to i1
  br i1 %47, label %48, label %59

48:                                               ; preds = %23
  %49 = getelementptr inbounds i8, ptr %10, i64 8
  %50 = getelementptr inbounds nuw %"class.boost::urls::url_view_base", ptr %49, i32 0, i32 1
  call void @_ZN5boost4urls6detail8url_impl5splitEim(ptr noundef nonnull align 8 dereferenceable(171) %50, i32 noundef 1, i64 noundef 1) #9
  %51 = getelementptr inbounds i8, ptr %10, i64 8
  %52 = getelementptr inbounds nuw %"class.boost::urls::url_view_base", ptr %51, i32 0, i32 1
  call void @_ZN5boost4urls6detail8url_impl5splitEim(ptr noundef nonnull align 8 dereferenceable(171) %52, i32 noundef 2, i64 noundef 0) #9
  %53 = getelementptr inbounds i8, ptr %10, i64 8
  %54 = getelementptr inbounds nuw %"class.boost::urls::url_view_base", ptr %53, i32 0, i32 1
  call void @_ZN5boost4urls6detail8url_impl5splitEim(ptr noundef nonnull align 8 dereferenceable(171) %54, i32 noundef 3, i64 noundef 0) #9
  %55 = load ptr, ptr %9, align 8, !tbaa !7
  %56 = load i64, ptr %5, align 8, !tbaa !21
  %57 = add i64 3, %56
  %58 = getelementptr inbounds nuw i8, ptr %55, i64 %57
  store i8 47, ptr %58, align 1, !tbaa !32
  br label %59

59:                                               ; preds = %48, %23
  call void @_ZNK5boost4urls8url_base16check_invariantsEv(ptr noundef nonnull align 8 dereferenceable(216) %10) #9
  %60 = load ptr, ptr %9, align 8, !tbaa !7
  %61 = getelementptr inbounds i8, ptr %60, i64 2
  call void @llvm.lifetime.end.p0(i64 8, ptr %9) #9
  call void @llvm.lifetime.end.p0(i64 1, ptr %7) #9
  ret ptr %61
}