; Function Attrs: mustprogress uwtable
define noundef nonnull ptr @_ZN5boost4urls8url_base17set_userinfo_implEmRNS1_4op_tE(ptr noundef nonnull align 8 dereferenceable(216) %0, i64 noundef %1, ptr noundef nonnull align 8 dereferenceable(32) %2) local_unnamed_addr #10 align 2 {
  %4 = getelementptr inbounds i8, ptr %0, i64 192
  %5 = load ptr, ptr %4, align 8, !tbaa !24
  %6 = tail call noundef i64 @_ZNK5boost4urls6detail8url_impl3lenEi(ptr noundef nonnull align 8 dereferenceable(171) %5, i32 noundef 4) #30
  %.not.i = icmp eq i64 %6, 0
  br i1 %.not.i, label %_ZNK5boost4urls13url_view_base16is_path_absoluteEv.exit.thread, label %_ZNK5boost4urls13url_view_base16is_path_absoluteEv.exit

_ZNK5boost4urls13url_view_base16is_path_absoluteEv.exit: ; preds = %3
  %7 = load ptr, ptr %4, align 8, !tbaa !24
  %8 = load ptr, ptr %7, align 8, !tbaa !28
  %9 = tail call noundef i64 @_ZNK5boost4urls6detail8url_impl6offsetEi(ptr noundef nonnull align 8 dereferenceable(171) %7, i32 noundef 4) #30
  %10 = getelementptr inbounds nuw i8, ptr %8, i64 %9
  %11 = load i8, ptr %10, align 1, !tbaa !25
  %12 = icmp eq i8 %11, 47
  br i1 %12, label %17, label %_ZNK5boost4urls13url_view_base16is_path_absoluteEv.exit.thread

_ZNK5boost4urls13url_view_base16is_path_absoluteEv.exit.thread: ; preds = %3, %_ZNK5boost4urls13url_view_base16is_path_absoluteEv.exit
  %13 = getelementptr inbounds i8, ptr %0, i64 16
  %14 = tail call { ptr, i64 } @_ZNK5boost4urls6detail8url_impl3getEi(ptr noundef nonnull align 8 dereferenceable(171) %13, i32 noundef 4) #30
  %15 = extractvalue { ptr, i64 } %14, 1
  %16 = icmp ne i64 %15, 0
  br label %17

17:                                               ; preds = %_ZNK5boost4urls13url_view_base16is_path_absoluteEv.exit.thread, %_ZNK5boost4urls13url_view_base16is_path_absoluteEv.exit
  %18 = phi i1 [ false, %_ZNK5boost4urls13url_view_base16is_path_absoluteEv.exit ], [ %16, %_ZNK5boost4urls13url_view_base16is_path_absoluteEv.exit.thread ]
  %19 = add i64 %1, 3
  %20 = zext i1 %18 to i64
  %21 = add i64 %19, %20
  %22 = tail call noundef ptr @_ZN5boost4urls8url_base11resize_implEiimRNS1_4op_tE(ptr noundef nonnull align 8 dereferenceable(216) %0, i32 noundef 0, i32 noundef 2, i64 noundef %21, ptr noundef nonnull align 8 dereferenceable(32) %2)
  %23 = getelementptr inbounds i8, ptr %0, i64 16
  %24 = add i64 %1, 2
  tail call void @_ZN5boost4urls6detail8url_impl5splitEim(ptr noundef nonnull align 8 dereferenceable(171) %23, i32 noundef 0, i64 noundef %24) #30
  store i8 47, ptr %22, align 1, !tbaa !25
  %25 = getelementptr inbounds i8, ptr %22, i64 1
  store i8 47, ptr %25, align 1, !tbaa !25
  %26 = getelementptr inbounds nuw i8, ptr %22, i64 %24
  store i8 64, ptr %26, align 1, !tbaa !25
  br i1 %18, label %27, label %29

27:                                               ; preds = %17
  tail call void @_ZN5boost4urls6detail8url_impl5splitEim(ptr noundef nonnull align 8 dereferenceable(171) %23, i32 noundef 1, i64 noundef 1) #30
  tail call void @_ZN5boost4urls6detail8url_impl5splitEim(ptr noundef nonnull align 8 dereferenceable(171) %23, i32 noundef 2, i64 noundef 0) #30
  tail call void @_ZN5boost4urls6detail8url_impl5splitEim(ptr noundef nonnull align 8 dereferenceable(171) %23, i32 noundef 3, i64 noundef 0) #30
  %28 = getelementptr inbounds nuw i8, ptr %22, i64 %19
  store i8 47, ptr %28, align 1, !tbaa !25
  br label %29

29:                                               ; preds = %27, %17
  %30 = getelementptr inbounds i8, ptr %22, i64 2
  ret ptr %30
}